; Function Attrs: nounwind uwtable
define internal void @aesni_cbc_hmac_sha256_set_mac_key(ptr noundef %0, ptr noundef %1, i64 noundef %2) #0 {
  %4 = alloca [64 x i8], align 16
  call void @llvm.lifetime.start.p0(i64 64, ptr nonnull %4) #8
  call void @llvm.memset.p0.i64(ptr noundef nonnull align 16 dereferenceable(64) %4, i8 0, i64 64, i1 false)
  %5 = icmp ugt i64 %2, 64
  br i1 %5, label %6, label %39

6:                                                ; preds = %3
  %7 = getelementptr inbounds nuw i8, ptr %0, i64 504
  %8 = tail call i32 @SHA256_Init(ptr noundef nonnull %7) #8
  %9 = getelementptr inbounds nuw i8, ptr %0, i64 608
  %10 = load i32, ptr %9, align 4, !tbaa !29
  %.not.i = icmp eq i32 %10, 0
  br i1 %.not.i, label %17, label %11

11:                                               ; preds = %6
  %12 = zext i32 %10 to i64
  %13 = sub nsw i64 64, %12
  %spec.select.i = tail call i64 @llvm.umin.i64(i64 %2, i64 %13)
  %14 = tail call i32 @SHA256_Update(ptr noundef nonnull %7, ptr noundef %1, i64 noundef %spec.select.i) #8
  %15 = getelementptr inbounds nuw i8, ptr %1, i64 %spec.select.i
  %16 = sub i64 %2, %spec.select.i
  br label %17

17:                                               ; preds = %11, %6
  %.033.i = phi i64 [ %16, %11 ], [ %2, %6 ]
  %.032.i = phi ptr [ %15, %11 ], [ %1, %6 ]
  %18 = and i64 %.033.i, 63
  %19 = and i64 %.033.i, -64
  %.not39.i = icmp eq i64 %19, 0
  br i1 %.not39.i, label %35, label %20

20:                                               ; preds = %17
  %21 = lshr i64 %.033.i, 6
  tail call void @sha256_block_data_order(ptr noundef nonnull %7, ptr noundef %.032.i, i64 noundef %21) #8
  %22 = getelementptr inbounds nuw i8, ptr %.032.i, i64 %19
  %23 = lshr i64 %.033.i, 29
  %24 = getelementptr inbounds nuw i8, ptr %0, i64 540
  %25 = load i32, ptr %24, align 4, !tbaa !25
  %26 = trunc i64 %23 to i32
  %27 = add i32 %25, %26
  store i32 %27, ptr %24, align 4, !tbaa !25
  %28 = getelementptr inbounds nuw i8, ptr %0, i64 536
  %29 = load i32, ptr %28, align 4, !tbaa !26
  %.tr.i = trunc i64 %19 to i32
  %30 = shl i32 %.tr.i, 3
  %31 = add i32 %29, %30
  store i32 %31, ptr %28, align 4, !tbaa !26
  %32 = icmp ult i32 %31, %30
  br i1 %32, label %33, label %35

33:                                               ; preds = %20
  %34 = add i32 %27, 1
  store i32 %34, ptr %24, align 4, !tbaa !25
  br label %35

35:                                               ; preds = %33, %20, %17
  %.1.i = phi ptr [ %22, %33 ], [ %22, %20 ], [ %.032.i, %17 ]
  %.not40.i = icmp eq i64 %18, 0
  br i1 %.not40.i, label %sha256_update.exit, label %36

36:                                               ; preds = %35
  %37 = tail call i32 @SHA256_Update(ptr noundef nonnull %7, ptr noundef %.1.i, i64 noundef %18) #8
  br label %sha256_update.exit

sha256_update.exit:                               ; preds = %35, %36
  %38 = call i32 @SHA256_Final(ptr noundef nonnull %4, ptr noundef nonnull %7) #8
  br label %.preheader

39:                                               ; preds = %3
  call void @llvm.memcpy.p0.p0.i64(ptr nonnull align 16 %4, ptr align 1 %1, i64 %2, i1 false)
  br label %.preheader

.preheader:                                       ; preds = %39, %sha256_update.exit
  br label %40

40:                                               ; preds = %.preheader, %40
  %indvars.iv = phi i64 [ %indvars.iv.next, %40 ], [ 0, %.preheader ]
  %41 = getelementptr inbounds nuw [64 x i8], ptr %4, i64 0, i64 %indvars.iv
  %42 = load i8, ptr %41, align 1, !tbaa !18
  %43 = xor i8 %42, 54
  store i8 %43, ptr %41, align 1, !tbaa !18
  %indvars.iv.next = add nuw nsw i64 %indvars.iv, 1
  %exitcond.not = icmp eq i64 %indvars.iv.next, 64
  br i1 %exitcond.not, label %44, label %40, !llvm.loop !43

44:                                               ; preds = %40
  %45 = getelementptr inbounds nuw i8, ptr %0, i64 504
  %46 = call i32 @SHA256_Init(ptr noundef nonnull %45) #8
  %47 = getelementptr inbounds nuw i8, ptr %0, i64 608
  %48 = load i32, ptr %47, align 4, !tbaa !29
  %.not.i22 = icmp eq i32 %48, 0
  br i1 %.not.i22, label %.thread, label %49

49:                                               ; preds = %44
  %50 = zext i32 %48 to i64
  %51 = sub nsw i64 64, %50
  %spec.select.i23 = call i64 @llvm.umin.i64(i64 %51, i64 64)
  %52 = call i32 @SHA256_Update(ptr noundef nonnull %45, ptr noundef nonnull %4, i64 noundef %spec.select.i23) #8
  %53 = getelementptr inbounds nuw i8, ptr %4, i64 %spec.select.i23
  %54 = sub nuw nsw i64 64, %spec.select.i23
  %55 = and i64 %54, 63
  %56 = and i64 %54, 64
  %.not39.i26 = icmp eq i64 %56, 0
  br i1 %.not39.i26, label %69, label %.thread

.thread:                                          ; preds = %44, %49
  %57 = phi i64 [ %56, %49 ], [ 64, %44 ]
  %58 = phi i64 [ %55, %49 ], [ 0, %44 ]
  %.032.i2544 = phi ptr [ %53, %49 ], [ %4, %44 ]
  call void @sha256_block_data_order(ptr noundef nonnull %45, ptr noundef nonnull %.032.i2544, i64 noundef 1) #8
  %59 = getelementptr inbounds nuw i8, ptr %.032.i2544, i64 %57
  %60 = getelementptr inbounds nuw i8, ptr %0, i64 540
  %61 = load i32, ptr %60, align 4, !tbaa !25
  %62 = getelementptr inbounds nuw i8, ptr %0, i64 536
  %63 = load i32, ptr %62, align 4, !tbaa !26
  %.tr.i27 = trunc nuw nsw i64 %57 to i32
  %64 = shl nuw nsw i32 %.tr.i27, 3
  %65 = add i32 %63, %64
  store i32 %65, ptr %62, align 4, !tbaa !26
  %66 = icmp ult i32 %65, %64
  br i1 %66, label %67, label %69

67:                                               ; preds = %.thread
  %68 = add i32 %61, 1
  store i32 %68, ptr %60, align 4, !tbaa !25
  br label %69

69:                                               ; preds = %67, %.thread, %49
  %70 = phi i64 [ %58, %67 ], [ %58, %.thread ], [ %55, %49 ]
  %.1.i28 = phi ptr [ %59, %67 ], [ %59, %.thread ], [ %53, %49 ]
  %.not40.i29 = icmp eq i64 %70, 0
  br i1 %.not40.i29, label %sha256_update.exit30.preheader, label %71

71:                                               ; preds = %69
  %72 = call i32 @SHA256_Update(ptr noundef nonnull %45, ptr noundef nonnull %.1.i28, i64 noundef %70) #8
  br label %sha256_update.exit30.preheader

sha256_update.exit30.preheader:                   ; preds = %69, %71
  br label %sha256_update.exit30

sha256_update.exit30:                             ; preds = %sha256_update.exit30.preheader, %sha256_update.exit30
  %indvars.iv54 = phi i64 [ %indvars.iv.next55, %sha256_update.exit30 ], [ 0, %sha256_update.exit30.preheader ]
  %73 = getelementptr inbounds nuw [64 x i8], ptr %4, i64 0, i64 %indvars.iv54
  %74 = load i8, ptr %73, align 1, !tbaa !18
  %75 = xor i8 %74, 106
  store i8 %75, ptr %73, align 1, !tbaa !18
  %indvars.iv.next55 = add nuw nsw i64 %indvars.iv54, 1
  %exitcond57.not = icmp eq i64 %indvars.iv.next55, 64
  br i1 %exitcond57.not, label %76, label %sha256_update.exit30, !llvm.loop !44

76:                                               ; preds = %sha256_update.exit30
  %77 = getelementptr inbounds nuw i8, ptr %0, i64 616
  %78 = call i32 @SHA256_Init(ptr noundef nonnull %77) #8
  %79 = getelementptr inbounds nuw i8, ptr %0, i64 720
  %80 = load i32, ptr %79, align 4, !tbaa !29
  %.not.i31 = icmp eq i32 %80, 0
  br i1 %.not.i31, label %.thread45, label %81

81:                                               ; preds = %76
  %82 = zext i32 %80 to i64
  %83 = sub nsw i64 64, %82
  %spec.select.i32 = call i64 @llvm.umin.i64(i64 %83, i64 64)
  %84 = call i32 @SHA256_Update(ptr noundef nonnull %77, ptr noundef nonnull %4, i64 noundef %spec.select.i32) #8
  %85 = getelementptr inbounds nuw i8, ptr %4, i64 %spec.select.i32
  %86 = sub nuw nsw i64 64, %spec.select.i32
  %87 = and i64 %86, 63
  %88 = and i64 %86, 64
  %.not39.i35 = icmp eq i64 %88, 0
  br i1 %.not39.i35, label %101, label %.thread45

.thread45:                                        ; preds = %76, %81
  %89 = phi i64 [ %88, %81 ], [ 64, %76 ]
  %90 = phi i64 [ %87, %81 ], [ 0, %76 ]
  %.032.i3450 = phi ptr [ %85, %81 ], [ %4, %76 ]
  call void @sha256_block_data_order(ptr noundef nonnull %77, ptr noundef nonnull %.032.i3450, i64 noundef 1) #8
  %91 = getelementptr inbounds nuw i8, ptr %.032.i3450, i64 %89
  %92 = getelementptr inbounds nuw i8, ptr %0, i64 652
  %93 = load i32, ptr %92, align 4, !tbaa !25
  %94 = getelementptr inbounds nuw i8, ptr %0, i64 648
  %95 = load i32, ptr %94, align 4, !tbaa !26
  %.tr.i36 = trunc nuw nsw i64 %89 to i32
  %96 = shl nuw nsw i32 %.tr.i36, 3
  %97 = add i32 %95, %96
  store i32 %97, ptr %94, align 4, !tbaa !26
  %98 = icmp ult i32 %97, %96
  br i1 %98, label %99, label %101

99:                                               ; preds = %.thread45
  %100 = add i32 %93, 1
  store i32 %100, ptr %92, align 4, !tbaa !25
  br label %101

101:                                              ; preds = %99, %.thread45, %81
  %102 = phi i64 [ %90, %99 ], [ %90, %.thread45 ], [ %87, %81 ]
  %.1.i37 = phi ptr [ %91, %99 ], [ %91, %.thread45 ], [ %85, %81 ]
  %.not40.i38 = icmp eq i64 %102, 0
  br i1 %.not40.i38, label %sha256_update.exit39, label %103

103:                                              ; preds = %101
  %104 = call i32 @SHA256_Update(ptr noundef nonnull %77, ptr noundef nonnull %.1.i37, i64 noundef %102) #8
  br label %sha256_update.exit39

sha256_update.exit39:                             ; preds = %101, %103
  call void @OPENSSL_cleanse(ptr noundef nonnull %4, i64 noundef 64) #8
  call void @llvm.lifetime.end.p0(i64 64, ptr nonnull %4) #8
  ret void
}